target datalayout = "e-m:e-p270:32:32-p271:32:32-p272:64:64-i64:64-i128:128-f80:128-n8:16:32:64-S128"
target triple = "x86_64-pc-linux-gnu"

@.str.6 = private unnamed_addr constant [7 x i8] c"FT-R1N\00", align 1
@.str.7 = private unnamed_addr constant [6 x i8] c"FT-R1\00", align 1

; Function Attrs: nounwind uwtable
define internal zeroext i1 @sha256(ptr noundef %0, i64 noundef %1, ptr noundef %2) #0 {
  %4 = alloca i1, align 1
  %5 = alloca ptr, align 8
  %6 = alloca i64, align 8
  %7 = alloca ptr, align 8
  %8 = alloca ptr, align 8
  %9 = alloca i32, align 4
  %10 = alloca ptr, align 8
  store ptr %0, ptr %5, align 8
  store i64 %1, ptr %6, align 8
  store ptr %2, ptr %7, align 8
  %11 = call i32 @gcry_md_open(ptr noundef %8, i32 noundef 8, i32 noundef 0)
  store i32 %11, ptr %9, align 4
  %12 = load i32, ptr %9, align 4
  %13 = icmp ne i32 %12, 0
  br i1 %13, label %14, label %15

14:                                               ; preds = %3
  store i1 false, ptr %4, align 1
  br label %28

15:                                               ; preds = %3
  %16 = load ptr, ptr %8, align 8
  %17 = load ptr, ptr %5, align 8
  %18 = load i64, ptr %6, align 8
  call void @gcry_md_write(ptr noundef %16, ptr noundef %17, i64 noundef %18)
  %19 = load ptr, ptr %8, align 8
  %20 = call ptr @gcry_md_read(ptr noundef %19, i32 noundef 8)
  store ptr %20, ptr %10, align 8
  %21 = load ptr, ptr %10, align 8
  %22 = icmp ne ptr %21, null
  br i1 %22, label %24, label %23

23:                                               ; preds = %15
  store i1 false, ptr %4, align 1
  br label %28

24:                                               ; preds = %15
  %25 = load ptr, ptr %7, align 8
  %26 = load ptr, ptr %10, align 8
  call void @llvm.memcpy.p0.p0.i64(ptr align 1 %25, ptr align 1 %26, i64 32, i1 false)
  %27 = load ptr, ptr %8, align 8
  call void @gcry_md_close(ptr noundef %27)
  store i1 true, ptr %4, align 1
  br label %28

28:                                               ; preds = %24, %23, %14
  %29 = load i1, ptr %4, align 1
  ret i1 %29
}

; Function Attrs: nounwind uwtable
define hidden zeroext i1 @dot11decrypt_derive_pmk_r1(ptr noundef %0, i64 noundef %1, ptr noundef %2, ptr noundef %3, ptr noundef %4, i32 noundef %5, ptr noundef %6, ptr noundef %7, ptr noundef %8) #0 {
  %10 = alloca i1, align 1
  %11 = alloca ptr, align 8
  %12 = alloca i64, align 8
  %13 = alloca ptr, align 8
  %14 = alloca ptr, align 8
  %15 = alloca ptr, align 8
  %16 = alloca i32, align 4
  %17 = alloca ptr, align 8
  %18 = alloca ptr, align 8
  %19 = alloca ptr, align 8
  %20 = alloca ptr, align 8
  %21 = alloca i64, align 8
  %22 = alloca [34 x i8], align 16
  %23 = alloca [32 x i8], align 16
  %24 = alloca i64, align 8
  store ptr %0, ptr %11, align 8
  store i64 %1, ptr %12, align 8
  store ptr %2, ptr %13, align 8
  store ptr %3, ptr %14, align 8
  store ptr %4, ptr %15, align 8
  store i32 %5, ptr %16, align 4
  store ptr %6, ptr %17, align 8
  store ptr %7, ptr %18, align 8
  store ptr %8, ptr %19, align 8
  store ptr @.str.6, ptr %20, align 8
  %25 = load ptr, ptr %20, align 8
  %26 = call i64 @strlen(ptr noundef %25) #4
  store i64 %26, ptr %21, align 8
  store i64 0, ptr %24, align 8
  %27 = load ptr, ptr %11, align 8
  %28 = icmp ne ptr %27, null
  br i1 %28, label %29, label %47

29:                                               ; preds = %9
  %30 = load ptr, ptr %13, align 8
  %31 = icmp ne ptr %30, null
  br i1 %31, label %32, label %47

32:                                               ; preds = %29
  %33 = load ptr, ptr %14, align 8
  %34 = icmp ne ptr %33, null
  br i1 %34, label %35, label %47

35:                                               ; preds = %32
  %36 = load ptr, ptr %15, align 8
  %37 = icmp ne ptr %36, null
  br i1 %37, label %38, label %47

38:                                               ; preds = %35
  %39 = load ptr, ptr %17, align 8
  %40 = icmp ne ptr %39, null
  br i1 %40, label %41, label %47

41:                                               ; preds = %38
  %42 = load ptr, ptr %18, align 8
  %43 = icmp ne ptr %42, null
  br i1 %43, label %44, label %47

44:                                               ; preds = %41
  %45 = load ptr, ptr %19, align 8
  %46 = icmp ne ptr %45, null
  br i1 %46, label %48, label %47

47:                                               ; preds = %44, %41, %38, %35, %32, %29, %9
  store i1 false, ptr %10, align 1
  br label %108

48:                                               ; preds = %44
  %49 = load i32, ptr %16, align 4
  %50 = call i32 @gcry_md_get_algo_dlen(i32 noundef %49)
  %51 = zext i32 %50 to i64
  %52 = load ptr, ptr %18, align 8
  store i64 %51, ptr %52, align 8
  %53 = getelementptr inbounds [34 x i8], ptr %22, i64 0, i64 0
  %54 = load i64, ptr %24, align 8
  %55 = getelementptr i8, ptr %53, i64 %54
  %56 = load ptr, ptr %14, align 8
  call void @llvm.memcpy.p0.p0.i64(ptr align 1 %55, ptr align 1 %56, i64 6, i1 false)
  %57 = load i64, ptr %24, align 8
  %58 = add i64 %57, 6
  store i64 %58, ptr %24, align 8
  %59 = getelementptr inbounds [34 x i8], ptr %22, i64 0, i64 0
  %60 = load i64, ptr %24, align 8
  %61 = getelementptr i8, ptr %59, i64 %60
  %62 = load ptr, ptr %15, align 8
  call void @llvm.memcpy.p0.p0.i64(ptr align 1 %61, ptr align 1 %62, i64 6, i1 false)
  %63 = load i64, ptr %24, align 8
  %64 = add i64 %63, 6
  store i64 %64, ptr %24, align 8
  %65 = load ptr, ptr %11, align 8
  %66 = load i64, ptr %12, align 8
  %67 = getelementptr inbounds [34 x i8], ptr %22, i64 0, i64 0
  %68 = load i64, ptr %24, align 8
  %69 = load i32, ptr %16, align 4
  %70 = load ptr, ptr %17, align 8
  %71 = load ptr, ptr %18, align 8
  %72 = load i64, ptr %71, align 8
  %73 = call zeroext i1 @dot11decrypt_kdf(ptr noundef %65, i64 noundef %66, ptr noundef @.str.7, ptr noundef %67, i64 noundef %68, i32 noundef %69, ptr noundef %70, i64 noundef %72)
  store i64 0, ptr %24, align 8
  %74 = getelementptr inbounds [34 x i8], ptr %22, i64 0, i64 0
  %75 = load i64, ptr %24, align 8
  %76 = getelementptr i8, ptr %74, i64 %75
  %77 = load ptr, ptr %20, align 8
  %78 = load i64, ptr %21, align 8
  call void @llvm.memcpy.p0.p0.i64(ptr align 1 %76, ptr align 1 %77, i64 %78, i1 false)
  %79 = load i64, ptr %21, align 8
  %80 = load i64, ptr %24, align 8
  %81 = add i64 %80, %79
  store i64 %81, ptr %24, align 8
  %82 = getelementptr inbounds [34 x i8], ptr %22, i64 0, i64 0
  %83 = load i64, ptr %24, align 8
  %84 = getelementptr i8, ptr %82, i64 %83
  %85 = load ptr, ptr %13, align 8
  call void @llvm.memcpy.p0.p0.i64(ptr align 1 %84, ptr align 1 %85, i64 16, i1 false)
  %86 = load i64, ptr %24, align 8
  %87 = add i64 %86, 16
  store i64 %87, ptr %24, align 8
  %88 = getelementptr inbounds [34 x i8], ptr %22, i64 0, i64 0
  %89 = load i64, ptr %24, align 8
  %90 = getelementptr i8, ptr %88, i64 %89
  %91 = load ptr, ptr %14, align 8
  call void @llvm.memcpy.p0.p0.i64(ptr align 1 %90, ptr align 1 %91, i64 6, i1 false)
  %92 = load i64, ptr %24, align 8
  %93 = add i64 %92, 6
  store i64 %93, ptr %24, align 8
  %94 = getelementptr inbounds [34 x i8], ptr %22, i64 0, i64 0
  %95 = load i64, ptr %24, align 8
  %96 = getelementptr i8, ptr %94, i64 %95
  %97 = load ptr, ptr %15, align 8
  call void @llvm.memcpy.p0.p0.i64(ptr align 1 %96, ptr align 1 %97, i64 6, i1 false)
  %98 = load i64, ptr %24, align 8
  %99 = add i64 %98, 6
  store i64 %99, ptr %24, align 8
  %100 = getelementptr inbounds [34 x i8], ptr %22, i64 0, i64 0
  %101 = load i64, ptr %24, align 8
  %102 = getelementptr inbounds [32 x i8], ptr %23, i64 0, i64 0
  %103 = call zeroext i1 @sha256(ptr noundef %100, i64 noundef %101, ptr noundef %102)
  br i1 %103, label %105, label %104

104:                                              ; preds = %48
  store i1 false, ptr %10, align 1
  br label %108

105:                                              ; preds = %48
  %106 = load ptr, ptr %19, align 8
  %107 = getelementptr inbounds [32 x i8], ptr %23, i64 0, i64 0
  call void @llvm.memcpy.p0.p0.i64(ptr align 1 %106, ptr align 16 %107, i64 16, i1 false)
  store i1 true, ptr %10, align 1
  br label %108

108:                                              ; preds = %105, %104, %47
  %109 = load i1, ptr %10, align 1
  ret i1 %109
}