; Function Attrs: nounwind uwtable
define hidden noundef zeroext i1 @dot11decrypt_derive_pmk_r1(ptr noundef %0, i64 noundef %1, ptr noundef readonly %2, ptr noundef readonly %3, ptr noundef readonly %4, i32 noundef %5, ptr noundef %6, ptr noundef writeonly %7, ptr noundef writeonly %8) local_unnamed_addr #2 {
  %10 = alloca ptr, align 8
  %11 = alloca [34 x i8], align 16
  %12 = alloca [32 x i8], align 16
  %13 = icmp ne ptr %0, null
  %14 = icmp ne ptr %2, null
  %or.cond = and i1 %13, %14
  %15 = icmp ne ptr %3, null
  %or.cond3 = and i1 %or.cond, %15
  %16 = icmp ne ptr %4, null
  %or.cond5 = and i1 %or.cond3, %16
  %17 = icmp ne ptr %6, null
  %or.cond7 = and i1 %or.cond5, %17
  %18 = icmp ne ptr %7, null
  %or.cond9 = and i1 %or.cond7, %18
  %19 = icmp ne ptr %8, null
  %or.cond11 = and i1 %or.cond9, %19
  br i1 %or.cond11, label %20, label %34

20:                                               ; preds = %9
  %21 = tail call i32 @gcry_md_get_algo_dlen(i32 noundef %5) #7
  %22 = zext i32 %21 to i64
  store i64 %22, ptr %7, align 8
  call void @llvm.memcpy.p0.p0.i64(ptr noundef nonnull align 16 dereferenceable(6) %11, ptr noundef nonnull align 1 dereferenceable(6) %3, i64 6, i1 false)
  %23 = getelementptr inbounds nuw i8, ptr %11, i64 6
  call void @llvm.memcpy.p0.p0.i64(ptr noundef nonnull align 2 dereferenceable(6) %23, ptr noundef nonnull align 1 dereferenceable(6) %4, i64 6, i1 false)
  %24 = call zeroext i1 @dot11decrypt_kdf(ptr noundef nonnull %0, i64 noundef %1, ptr noundef nonnull @.str.7, ptr noundef nonnull %11, i64 noundef 12, i32 noundef %5, ptr noundef nonnull %6, i64 noundef %22)
  call void @llvm.memcpy.p0.p0.i64(ptr noundef nonnull align 16 dereferenceable(6) %11, ptr noundef nonnull align 1 dereferenceable(6) @.str.6, i64 6, i1 false)
  call void @llvm.memcpy.p0.p0.i64(ptr noundef nonnull align 2 dereferenceable(16) %23, ptr noundef nonnull align 1 dereferenceable(16) %2, i64 16, i1 false)
  %25 = getelementptr inbounds nuw i8, ptr %11, i64 22
  call void @llvm.memcpy.p0.p0.i64(ptr noundef nonnull align 2 dereferenceable(6) %25, ptr noundef nonnull align 1 dereferenceable(6) %3, i64 6, i1 false)
  %26 = getelementptr inbounds nuw i8, ptr %11, i64 28
  call void @llvm.memcpy.p0.p0.i64(ptr noundef nonnull align 4 dereferenceable(6) %26, ptr noundef nonnull align 1 dereferenceable(6) %4, i64 6, i1 false)
  call void @llvm.lifetime.start.p0(i64 8, ptr nonnull %10)
  %27 = call i32 @gcry_md_open(ptr noundef nonnull %10, i32 noundef 8, i32 noundef 0) #7
  %.not.i = icmp eq i32 %27, 0
  br i1 %.not.i, label %28, label %sha256.exit.thread

28:                                               ; preds = %20
  %29 = load ptr, ptr %10, align 8
  call void @gcry_md_write(ptr noundef %29, ptr noundef nonnull %11, i64 noundef 34) #7
  %30 = load ptr, ptr %10, align 8
  %31 = call ptr @gcry_md_read(ptr noundef %30, i32 noundef 8) #7
  %.not7.i = icmp eq ptr %31, null
  br i1 %.not7.i, label %sha256.exit.thread, label %32

sha256.exit.thread:                               ; preds = %20, %28
  call void @llvm.lifetime.end.p0(i64 8, ptr nonnull %10)
  br label %34

32:                                               ; preds = %28
  call void @llvm.memcpy.p0.p0.i64(ptr noundef nonnull align 16 dereferenceable(32) %12, ptr noundef nonnull align 1 dereferenceable(32) %31, i64 32, i1 false)
  %33 = load ptr, ptr %10, align 8
  call void @gcry_md_close(ptr noundef %33) #7
  call void @llvm.lifetime.end.p0(i64 8, ptr nonnull %10)
  call void @llvm.memcpy.p0.p0.i64(ptr noundef nonnull align 1 dereferenceable(16) %8, ptr noundef nonnull align 16 dereferenceable(16) %12, i64 16, i1 false)
  br label %34

34:                                               ; preds = %sha256.exit.thread, %9, %32
  %.0 = phi i1 [ true, %32 ], [ false, %9 ], [ false, %sha256.exit.thread ]
  ret i1 %.0
}